	.file	"jiecheng.c"
	.text
	.globl	factorial
	.type	factorial, @function
factorial:
.LFB0:
	.cfi_startproc
	pushq	%rbp
	.cfi_def_cfa_offset 16
	.cfi_offset 6, -16
	movq	%rsp, %rbp
	.cfi_def_cfa_register 6
	movl	%edi, -20(%rbp)
	movl	$2, -8(%rbp)
	movl	$1, -4(%rbp)
	cmpl	$0, -20(%rbp)
	jns	.L4
	movl	$-1, %eax
	jmp	.L3
.L5:
	movl	-4(%rbp), %eax
	imull	-8(%rbp), %eax
	movl	%eax, -4(%rbp)
	addl	$1, -8(%rbp)
.L4:
	movl	-8(%rbp), %eax
	cmpl	-20(%rbp), %eax
	jle	.L5
	movl	-4(%rbp), %eax
.L3:
	popq	%rbp
	.cfi_def_cfa 7, 8
	ret
	.cfi_endproc
.LFE0:
	.size	factorial, .-factorial
	.section	.rodata
.LC0:
	.string	"%d"
	.text
	.globl	main
	.type	main, @function
main:
.LFB1:
	.cfi_startproc
	pushq	%rbp
	.cfi_def_cfa_offset 16
	.cfi_offset 6, -16
	movq	%rsp, %rbp
	.cfi_def_cfa_register 6
	subq	$16, %rsp
	movq	%fs:40, %rax
	movq	%rax, -8(%rbp)
	xorl	%eax, %eax
	leaq	-12(%rbp), %rax
	movq	%rax, %rsi
	leaq	.LC0(%rip), %rdi
	movl	$0, %eax
	call	__isoc99_scanf@PLT
	movl	-12(%rbp), %eax
	movl	%eax, %edi
	call	factorial
	movl	%eax, -12(%rbp)
	movl	-12(%rbp), %eax
	movl	%eax, %esi
	leaq	.LC0(%rip), %rdi
	movl	$0, %eax
	call	printf@PLT
	movl	$0, %eax
	movq	-8(%rbp), %rdx
	xorq	%fs:40, %rdx
	je	.L8
	call	__stack_chk_fail@PLT
.L8:
	leave
	.cfi_def_cfa 7, 8
	ret
	.cfi_endproc
.LFE1:
	.size	main, .-main
	.ident	"GCC: (Ubuntu 7.5.0-3ubuntu1~18.04) 7.5.0"
	.section	.note.GNU-stack,"",@progbits
